target datalayout = "e-m:e-p270:32:32-p271:32:32-p272:64:64-i64:64-i128:128-f80:128-n8:16:32:64-S128"
target triple = "x86_64-pc-linux-gnu"

%struct._dcerpc_auth_info = type { i8, i8, i8, i32, i8, i32, ptr, ptr, ptr, ptr, ptr }

@hf_dcerpc_encrypted_stub_data = internal global i32 0, align 4
@hf_dcerpc_decrypted_stub_data = internal global i32 0, align 4
@hf_dcerpc_stub_data = internal global i32 0, align 4
@hf_dcerpc_auth_padding = internal global i32 0, align 4

; Function Attrs: null_pointer_is_valid sspstrong uwtable
define internal void @show_stub_data(ptr noundef %0, ptr noundef %1, i32 noundef %2, ptr noundef %3, ptr noundef %4, i1 noundef zeroext %5) #0 {
  %7 = alloca ptr, align 8
  %8 = alloca ptr, align 8
  %9 = alloca i32, align 4
  %10 = alloca ptr, align 8
  %11 = alloca ptr, align 8
  %12 = alloca i8, align 1
  %13 = alloca i32, align 4
  %14 = alloca i32, align 4
  %15 = alloca i32, align 4
  %16 = alloca i32, align 4
  store ptr %0, ptr %7, align 8
  store ptr %1, ptr %8, align 8
  store i32 %2, ptr %9, align 4
  store ptr %3, ptr %10, align 8
  store ptr %4, ptr %11, align 8
  %17 = zext i1 %5 to i8
  store i8 %17, ptr %12, align 1
  call void @llvm.lifetime.start.p0(i64 4, ptr %13) #19
  call void @llvm.lifetime.start.p0(i64 4, ptr %14) #19
  call void @llvm.lifetime.start.p0(i64 4, ptr %15) #19
  call void @llvm.lifetime.start.p0(i64 4, ptr %16) #19
  %18 = load ptr, ptr %8, align 8
  %19 = load i32, ptr %9, align 4
  %20 = call i32 @tvb_reported_length_remaining(ptr noundef %18, i32 noundef %19)
  %21 = icmp sgt i32 %20, 0
  br i1 %21, label %22, label %101

22:                                               ; preds = %6
  %23 = load ptr, ptr %11, align 8
  %24 = icmp ne ptr %23, null
  br i1 %24, label %25, label %30

25:                                               ; preds = %22
  %26 = load ptr, ptr %11, align 8
  %27 = getelementptr inbounds nuw %struct._dcerpc_auth_info, ptr %26, i32 0, i32 4
  %28 = load i8, ptr %27, align 8
  %29 = zext i8 %28 to i32
  br label %31

30:                                               ; preds = %22
  br label %31

31:                                               ; preds = %30, %25
  %32 = phi i32 [ %29, %25 ], [ 0, %30 ]
  store i32 %32, ptr %15, align 4
  %33 = load ptr, ptr %8, align 8
  %34 = load i32, ptr %9, align 4
  %35 = call i32 @tvb_reported_length_remaining(ptr noundef %33, i32 noundef %34)
  store i32 %35, ptr %13, align 4
  %36 = load i32, ptr %13, align 4
  %37 = load i32, ptr %15, align 4
  %38 = sub i32 %36, %37
  store i32 %38, ptr %14, align 4
  %39 = load i32, ptr %14, align 4
  %40 = icmp slt i32 %39, 1
  br i1 %40, label %41, label %43

41:                                               ; preds = %31
  %42 = load i32, ptr %13, align 4
  store i32 %42, ptr %14, align 4
  store i32 0, ptr %15, align 4
  br label %43

43:                                               ; preds = %41, %31
  %44 = load i32, ptr %9, align 4
  %45 = load i32, ptr %14, align 4
  %46 = add i32 %44, %45
  store i32 %46, ptr %16, align 4
  %47 = load ptr, ptr %11, align 8
  %48 = icmp ne ptr %47, null
  br i1 %48, label %49, label %78

49:                                               ; preds = %43
  %50 = load ptr, ptr %11, align 8
  %51 = getelementptr inbounds nuw %struct._dcerpc_auth_info, ptr %50, i32 0, i32 2
  %52 = load i8, ptr %51, align 2
  %53 = zext i8 %52 to i32
  %54 = icmp eq i32 %53, 6
  br i1 %54, label %55, label %78

55:                                               ; preds = %49
  %56 = load i8, ptr %12, align 1, !range !11, !noundef !12
  %57 = trunc i8 %56 to i1
  br i1 %57, label %58, label %65

58:                                               ; preds = %55
  %59 = load ptr, ptr %10, align 8
  %60 = load i32, ptr @hf_dcerpc_encrypted_stub_data, align 4
  %61 = load ptr, ptr %8, align 8
  %62 = load i32, ptr %9, align 4
  %63 = load i32, ptr %13, align 4
  %64 = call ptr @proto_tree_add_item(ptr noundef %59, i32 noundef %60, ptr noundef %61, i32 noundef %62, i32 noundef %63, i32 noundef 0)
  store i32 0, ptr %15, align 4
  br label %77

65:                                               ; preds = %55
  %66 = load ptr, ptr %10, align 8
  %67 = load i32, ptr @hf_dcerpc_decrypted_stub_data, align 4
  %68 = load ptr, ptr %8, align 8
  %69 = load i32, ptr %9, align 4
  %70 = load i32, ptr %14, align 4
  %71 = call ptr @proto_tree_add_item(ptr noundef %66, i32 noundef %67, ptr noundef %68, i32 noundef %69, i32 noundef %70, i32 noundef 0)
  %72 = load ptr, ptr %7, align 8
  %73 = load ptr, ptr %8, align 8
  %74 = load i32, ptr %9, align 4
  %75 = load ptr, ptr %10, align 8
  %76 = call i32 @dissect_verification_trailer(ptr noundef %72, ptr noundef %73, i32 noundef %74, ptr noundef %75, ptr noundef null)
  br label %77

77:                                               ; preds = %65, %58
  br label %90

78:                                               ; preds = %49, %43
  %79 = load ptr, ptr %10, align 8
  %80 = load i32, ptr @hf_dcerpc_stub_data, align 4
  %81 = load ptr, ptr %8, align 8
  %82 = load i32, ptr %9, align 4
  %83 = load i32, ptr %14, align 4
  %84 = call ptr @proto_tree_add_item(ptr noundef %79, i32 noundef %80, ptr noundef %81, i32 noundef %82, i32 noundef %83, i32 noundef 0)
  %85 = load ptr, ptr %7, align 8
  %86 = load ptr, ptr %8, align 8
  %87 = load i32, ptr %9, align 4
  %88 = load ptr, ptr %10, align 8
  %89 = call i32 @dissect_verification_trailer(ptr noundef %85, ptr noundef %86, i32 noundef %87, ptr noundef %88, ptr noundef null)
  br label %90

90:                                               ; preds = %78, %77
  %91 = load i32, ptr %15, align 4
  %92 = icmp ne i32 %91, 0
  br i1 %92, label %93, label %100

93:                                               ; preds = %90
  %94 = load ptr, ptr %10, align 8
  %95 = load i32, ptr @hf_dcerpc_auth_padding, align 4
  %96 = load ptr, ptr %8, align 8
  %97 = load i32, ptr %16, align 4
  %98 = load i32, ptr %15, align 4
  %99 = call ptr @proto_tree_add_item(ptr noundef %94, i32 noundef %95, ptr noundef %96, i32 noundef %97, i32 noundef %98, i32 noundef 0)
  br label %100

100:                                              ; preds = %93, %90
  br label %101

101:                                              ; preds = %100, %6
  call void @llvm.lifetime.end.p0(i64 4, ptr %16) #19
  call void @llvm.lifetime.end.p0(i64 4, ptr %15) #19
  call void @llvm.lifetime.end.p0(i64 4, ptr %14) #19
  call void @llvm.lifetime.end.p0(i64 4, ptr %13) #19
  ret void
}