; Function Attrs: null_pointer_is_valid sspstrong uwtable
define internal fastcc void @show_stub_data(ptr noundef readonly captures(none) %0, ptr noundef %1, i32 noundef %2, ptr noundef %3, ptr noundef readonly captures(address_is_null) %4, i1 noundef zeroext %5) unnamed_addr #0 {
  %7 = tail call i32 @tvb_reported_length_remaining(ptr noundef %1, i32 noundef %2)
  %8 = icmp sgt i32 %7, 0
  br i1 %8, label %9, label %33

9:                                                ; preds = %6
  %.not = icmp eq ptr %4, null
  br i1 %.not, label %14, label %10

10:                                               ; preds = %9
  %11 = getelementptr inbounds nuw i8, ptr %4, i64 8
  %12 = load i8, ptr %11, align 8
  %13 = zext i8 %12 to i32
  br label %14

14:                                               ; preds = %9, %10
  %15 = phi i32 [ %13, %10 ], [ 0, %9 ]
  %16 = tail call i32 @tvb_reported_length_remaining(ptr noundef %1, i32 noundef %2)
  %17 = sub i32 %16, %15
  %18 = icmp slt i32 %17, 1
  %spec.select = select i1 %18, i32 0, i32 %15
  %spec.select44 = select i1 %18, i32 %16, i32 %17
  %19 = add i32 %spec.select44, %2
  br i1 %.not, label %26, label %20

20:                                               ; preds = %14
  %21 = getelementptr inbounds nuw i8, ptr %4, i64 2
  %22 = load i8, ptr %21, align 2
  %23 = icmp eq i8 %22, 6
  %brmerge.not = and i1 %23, %5
  %hf_dcerpc_stub_data.mux = select i1 %23, ptr @hf_dcerpc_decrypted_stub_data, ptr @hf_dcerpc_stub_data
  br i1 %brmerge.not, label %.thread, label %26

.thread:                                          ; preds = %20
  %24 = load i32, ptr @hf_dcerpc_encrypted_stub_data, align 4
  %25 = tail call ptr @proto_tree_add_item(ptr noundef %3, i32 noundef %24, ptr noundef %1, i32 noundef %2, i32 noundef %16, i32 noundef 0)
  br label %33

26:                                               ; preds = %20, %14
  %hf_dcerpc_decrypted_stub_data.sink = phi ptr [ %hf_dcerpc_stub_data.mux, %20 ], [ @hf_dcerpc_stub_data, %14 ]
  %27 = load i32, ptr %hf_dcerpc_decrypted_stub_data.sink, align 4
  %28 = tail call ptr @proto_tree_add_item(ptr noundef %3, i32 noundef %27, ptr noundef %1, i32 noundef %2, i32 noundef %spec.select44, i32 noundef 0)
  %29 = tail call fastcc i32 @dissect_verification_trailer(ptr noundef %0, ptr noundef %1, i32 noundef %2, ptr noundef %3, ptr noundef null)
  %.not43 = icmp eq i32 %spec.select, 0
  br i1 %.not43, label %33, label %30

30:                                               ; preds = %26
  %31 = load i32, ptr @hf_dcerpc_auth_padding, align 4
  %32 = tail call ptr @proto_tree_add_item(ptr noundef %3, i32 noundef %31, ptr noundef %1, i32 noundef %19, i32 noundef %spec.select, i32 noundef 0)
  br label %33

33:                                               ; preds = %.thread, %26, %30, %6
  ret void
}